; Function Attrs: inlinehint nounwind uwtable
define internal fastcc ptr @lean_int_emod(ptr noundef %0, ptr noundef %1) unnamed_addr #0 {
  %3 = ptrtoint ptr %0 to i64
  %4 = and i64 %3, 1
  %.not = icmp eq i64 %4, 0
  br i1 %.not, label %.critedge, label %5, !prof !4

5:                                                ; preds = %2
  %6 = ptrtoint ptr %1 to i64
  %7 = and i64 %6, 1
  %.not21 = icmp eq i64 %7, 0
  br i1 %.not21, label %.critedge, label %8, !prof !4

8:                                                ; preds = %5
  %9 = shl i64 %6, 31
  %10 = icmp ult i64 %9, 4294967296
  br i1 %10, label %lean_int64_to_int.exit, label %11

11:                                               ; preds = %8
  %12 = ashr i64 %9, 32
  %13 = shl i64 %3, 31
  %14 = ashr i64 %13, 32
  %15 = srem i64 %14, %12
  %16 = icmp slt i64 %15, 0
  %.p = tail call i64 @llvm.abs.i64(i64 %12, i1 true)
  %17 = select i1 %16, i64 %.p, i64 0
  %.0 = add nsw i64 %17, %15
  %18 = add nsw i64 %.0, 2147483648
  %19 = icmp samesign ult i64 %18, 4294967296
  br i1 %19, label %20, label %25, !prof !5

20:                                               ; preds = %11
  %21 = shl nsw i64 %.0, 1
  %22 = and i64 %21, 8589934590
  %23 = or disjoint i64 %22, 1
  %24 = inttoptr i64 %23 to ptr
  br label %lean_int64_to_int.exit

25:                                               ; preds = %11
  %26 = tail call ptr @lean_big_int64_to_int(i64 noundef range(i64 -4611686016279904256, 4611686018427387905) %.0) #6
  br label %lean_int64_to_int.exit

.critedge:                                        ; preds = %2, %5
  %27 = tail call ptr @lean_int_big_emod(ptr noundef %0, ptr noundef %1) #6
  br label %lean_int64_to_int.exit

lean_int64_to_int.exit:                           ; preds = %25, %20, %8, %.critedge
  %.1 = phi ptr [ %27, %.critedge ], [ %0, %8 ], [ %24, %20 ], [ %26, %25 ]
  ret ptr %.1
}